; Function Attrs: null_pointer_is_valid sspstrong uwtable
define void @prefs_register_filename_preference(ptr noundef captures(address_is_null) %0, ptr noundef %1, ptr noundef %2, ptr noundef %3, ptr noundef %4, i1 noundef zeroext %5) local_unnamed_addr #1 {
  %7 = select i1 %5, i32 128, i32 16384
  %8 = tail call fastcc ptr @register_preference(ptr noundef %0, ptr noundef %1, ptr noundef %2, ptr noundef %3, i32 noundef range(i32 8, 131073) %7)
  %9 = load ptr, ptr %4, align 8
  %10 = icmp eq ptr %9, null
  %.str.10..i = select i1 %10, ptr @.str.10, ptr %9
  %11 = tail call noalias ptr @g_strdup(ptr noundef nonnull %.str.10..i)
  store ptr %11, ptr %4, align 8
  %12 = getelementptr inbounds nuw i8, ptr %8, i64 40
  store ptr %4, ptr %12, align 8
  %13 = load ptr, ptr %4, align 8
  %14 = tail call noalias ptr @g_strdup(ptr noundef %13)
  %15 = getelementptr inbounds nuw i8, ptr %8, i64 56
  store ptr %14, ptr %15, align 8
  %16 = getelementptr inbounds nuw i8, ptr %8, i64 48
  store ptr null, ptr %16, align 8
  ret void
}